target datalayout = "e-m:e-p270:32:32-p271:32:32-p272:64:64-i64:64-i128:128-f80:128-n8:16:32:64-S128"
target triple = "x86_64-pc-linux-gnu"

%struct.lxb_html_token_t = type { ptr, ptr, i64, i64, ptr, ptr, ptr, ptr, ptr, i64, i64, i32 }
%struct.lxb_dom_node = type { %struct.lxb_dom_event_target, i64, i64, i64, ptr, ptr, ptr, ptr, ptr, ptr, ptr, i32, i64 }
%struct.lxb_dom_event_target = type { ptr }
%struct.lxb_html_tree = type { ptr, ptr, ptr, ptr, ptr, ptr, ptr, %struct.lxb_html_tree_pending_table_t, ptr, i8, i8, i8, i8, i8, i8, ptr, ptr, ptr, i32, i64 }
%struct.lxb_html_tree_pending_table_t = type { ptr, i8 }
%struct.lexbor_str_t = type { ptr, i64 }
%struct.lxb_html_document = type { %struct.lxb_dom_document, ptr, ptr, ptr, %struct.lxb_html_document_css_t, i8, ptr, i32, i32 }
%struct.lxb_dom_document = type { %struct.lxb_dom_node, i32, i32, ptr, ptr, ptr, ptr, ptr, ptr, ptr, ptr, ptr, ptr, ptr, ptr, ptr, ptr, ptr, ptr, ptr, i8, i8, i8 }
%struct.lxb_html_document_css_t = type { ptr, ptr, ptr, ptr, ptr, ptr, ptr, ptr, i64 }

@lxb_html_tree_insertion_mode_foreign_content_text.rep = internal global ptr @lexbor_str_res_ansi_replacement_character, align 8

; Function Attrs: nounwind uwtable
define internal zeroext i1 @lxb_html_tree_insertion_mode_foreign_content_text(ptr noundef %0, ptr noundef %1) #0 {
  %3 = alloca i1, align 1
  %4 = alloca ptr, align 8
  %5 = alloca ptr, align 8
  %6 = alloca %struct.lexbor_str_t, align 8
  %7 = alloca ptr, align 8
  %8 = alloca ptr, align 8
  store ptr %0, ptr %4, align 8
  store ptr %1, ptr %5, align 8
  %9 = load ptr, ptr %5, align 8
  %10 = getelementptr inbounds %struct.lxb_html_token_t, ptr %9, i32 0, i32 9
  %11 = load i64, ptr %10, align 8
  %12 = icmp ne i64 %11, 0
  br i1 %12, label %13, label %26

13:                                               ; preds = %2
  %14 = load ptr, ptr %4, align 8
  %15 = load ptr, ptr %5, align 8
  call void @lxb_html_tree_parse_error(ptr noundef %14, ptr noundef %15, i32 noundef 2)
  %16 = load ptr, ptr %5, align 8
  %17 = load ptr, ptr %4, align 8
  %18 = getelementptr inbounds %struct.lxb_html_tree, ptr %17, i32 0, i32 1
  %19 = load ptr, ptr %18, align 8
  %20 = getelementptr inbounds %struct.lxb_html_document, ptr %19, i32 0, i32 0
  %21 = getelementptr inbounds %struct.lxb_dom_document, ptr %20, i32 0, i32 13
  %22 = load ptr, ptr %21, align 8
  %23 = call i32 @lxb_html_token_make_text_replace_null(ptr noundef %16, ptr noundef %6, ptr noundef %22)
  %24 = load ptr, ptr %4, align 8
  %25 = getelementptr inbounds %struct.lxb_html_tree, ptr %24, i32 0, i32 18
  store i32 %23, ptr %25, align 8
  br label %37

26:                                               ; preds = %2
  %27 = load ptr, ptr %5, align 8
  %28 = load ptr, ptr %4, align 8
  %29 = getelementptr inbounds %struct.lxb_html_tree, ptr %28, i32 0, i32 1
  %30 = load ptr, ptr %29, align 8
  %31 = getelementptr inbounds %struct.lxb_html_document, ptr %30, i32 0, i32 0
  %32 = getelementptr inbounds %struct.lxb_dom_document, ptr %31, i32 0, i32 13
  %33 = load ptr, ptr %32, align 8
  %34 = call i32 @lxb_html_token_make_text(ptr noundef %27, ptr noundef %6, ptr noundef %33)
  %35 = load ptr, ptr %4, align 8
  %36 = getelementptr inbounds %struct.lxb_html_tree, ptr %35, i32 0, i32 18
  store i32 %34, ptr %36, align 8
  br label %37

37:                                               ; preds = %26, %13
  %38 = load ptr, ptr %4, align 8
  %39 = getelementptr inbounds %struct.lxb_html_tree, ptr %38, i32 0, i32 18
  %40 = load i32, ptr %39, align 8
  %41 = icmp ne i32 %40, 0
  br i1 %41, label %42, label %45

42:                                               ; preds = %37
  %43 = load ptr, ptr %4, align 8
  %44 = call zeroext i1 @lxb_html_tree_process_abort(ptr noundef %43)
  store i1 %44, ptr %3, align 1
  br label %131

45:                                               ; preds = %37
  %46 = getelementptr inbounds %struct.lexbor_str_t, ptr %6, i32 0, i32 1
  %47 = load i64, ptr %46, align 8
  %48 = icmp eq i64 %47, 0
  br i1 %48, label %49, label %57

49:                                               ; preds = %45
  %50 = load ptr, ptr %4, align 8
  %51 = getelementptr inbounds %struct.lxb_html_tree, ptr %50, i32 0, i32 1
  %52 = load ptr, ptr %51, align 8
  %53 = getelementptr inbounds %struct.lxb_html_document, ptr %52, i32 0, i32 0
  %54 = getelementptr inbounds %struct.lxb_dom_document, ptr %53, i32 0, i32 13
  %55 = load ptr, ptr %54, align 8
  %56 = call ptr @lexbor_str_destroy(ptr noundef %6, ptr noundef %55, i1 noundef zeroext false)
  store i1 true, ptr %3, align 1
  br label %131

57:                                               ; preds = %45
  %58 = load ptr, ptr %4, align 8
  %59 = getelementptr inbounds %struct.lxb_html_tree, ptr %58, i32 0, i32 10
  %60 = load i8, ptr %59, align 1
  %61 = trunc i8 %60 to i1
  br i1 %61, label %62, label %118

62:                                               ; preds = %57
  %63 = getelementptr inbounds %struct.lexbor_str_t, ptr %6, i32 0, i32 0
  %64 = load ptr, ptr %63, align 8
  store ptr %64, ptr %7, align 8
  %65 = getelementptr inbounds %struct.lexbor_str_t, ptr %6, i32 0, i32 0
  %66 = load ptr, ptr %65, align 8
  %67 = getelementptr inbounds %struct.lexbor_str_t, ptr %6, i32 0, i32 1
  %68 = load i64, ptr %67, align 8
  %69 = getelementptr inbounds i8, ptr %66, i64 %68
  store ptr %69, ptr %8, align 8
  br label %70

70:                                               ; preds = %114, %100, %62
  %71 = load ptr, ptr %7, align 8
  %72 = load ptr, ptr %8, align 8
  %73 = icmp ne ptr %71, %72
  br i1 %73, label %74, label %117

74:                                               ; preds = %70
  %75 = load ptr, ptr %7, align 8
  %76 = load i8, ptr %75, align 1
  %77 = zext i8 %76 to i32
  %78 = load ptr, ptr @lxb_html_tree_insertion_mode_foreign_content_text.rep, align 8
  %79 = load i8, ptr %78, align 1
  %80 = zext i8 %79 to i32
  %81 = icmp eq i32 %77, %80
  br i1 %81, label %82, label %103

82:                                               ; preds = %74
  %83 = load ptr, ptr %8, align 8
  %84 = load ptr, ptr %7, align 8
  %85 = ptrtoint ptr %83 to i64
  %86 = ptrtoint ptr %84 to i64
  %87 = sub i64 %85, %86
  %88 = icmp slt i64 %87, 3
  br i1 %88, label %89, label %92

89:                                               ; preds = %82
  %90 = load ptr, ptr %4, align 8
  %91 = getelementptr inbounds %struct.lxb_html_tree, ptr %90, i32 0, i32 10
  store i8 0, ptr %91, align 1
  br label %117

92:                                               ; preds = %82
  %93 = load ptr, ptr %7, align 8
  %94 = load ptr, ptr @lxb_html_tree_insertion_mode_foreign_content_text.rep, align 8
  %95 = call i32 @memcmp(ptr noundef %93, ptr noundef %94, i64 noundef 3) #3
  %96 = icmp ne i32 %95, 0
  br i1 %96, label %97, label %100

97:                                               ; preds = %92
  %98 = load ptr, ptr %4, align 8
  %99 = getelementptr inbounds %struct.lxb_html_tree, ptr %98, i32 0, i32 10
  store i8 0, ptr %99, align 1
  br label %117

100:                                              ; preds = %92
  %101 = load ptr, ptr %7, align 8
  %102 = getelementptr inbounds i8, ptr %101, i64 3
  store ptr %102, ptr %7, align 8
  br label %70

103:                                              ; preds = %74
  %104 = load ptr, ptr %7, align 8
  %105 = load i8, ptr %104, align 1
  %106 = zext i8 %105 to i64
  %107 = getelementptr inbounds [256 x i8], ptr @lexbor_tokenizer_chars_map, i64 0, i64 %106
  %108 = load i8, ptr %107, align 1
  %109 = zext i8 %108 to i32
  %110 = icmp ne i32 %109, 2
  br i1 %110, label %111, label %114

111:                                              ; preds = %103
  %112 = load ptr, ptr %4, align 8
  %113 = getelementptr inbounds %struct.lxb_html_tree, ptr %112, i32 0, i32 10
  store i8 0, ptr %113, align 1
  br label %117

114:                                              ; preds = %103
  %115 = load ptr, ptr %7, align 8
  %116 = getelementptr inbounds i8, ptr %115, i32 1
  store ptr %116, ptr %7, align 8
  br label %70

117:                                              ; preds = %111, %97, %89, %70
  br label %118

118:                                              ; preds = %117, %57
  %119 = load ptr, ptr %4, align 8
  %120 = call i32 @lxb_html_tree_insert_character_for_data(ptr noundef %119, ptr noundef %6, ptr noundef null)
  %121 = load ptr, ptr %4, align 8
  %122 = getelementptr inbounds %struct.lxb_html_tree, ptr %121, i32 0, i32 18
  store i32 %120, ptr %122, align 8
  %123 = load ptr, ptr %4, align 8
  %124 = getelementptr inbounds %struct.lxb_html_tree, ptr %123, i32 0, i32 18
  %125 = load i32, ptr %124, align 8
  %126 = icmp ne i32 %125, 0
  br i1 %126, label %127, label %130

127:                                              ; preds = %118
  %128 = load ptr, ptr %4, align 8
  %129 = call zeroext i1 @lxb_html_tree_process_abort(ptr noundef %128)
  store i1 %129, ptr %3, align 1
  br label %131

130:                                              ; preds = %118
  store i1 true, ptr %3, align 1
  br label %131

131:                                              ; preds = %130, %127, %49, %42
  %132 = load i1, ptr %3, align 1
  ret i1 %132
}