; Function Attrs: nounwind uwtable
define internal fastcc zeroext i1 @lxb_html_tree_insertion_mode_foreign_content_text(ptr noundef %0, ptr noundef %1) unnamed_addr #0 {
  %3 = alloca %struct.lexbor_str_t, align 8
  %4 = getelementptr inbounds i8, ptr %1, i64 72
  %5 = load i64, ptr %4, align 8
  %.not = icmp eq i64 %5, 0
  br i1 %.not, label %12, label %6

6:                                                ; preds = %2
  tail call void @lxb_html_tree_parse_error(ptr noundef %0, ptr noundef nonnull %1, i32 noundef 2) #4
  %7 = getelementptr inbounds i8, ptr %0, i64 8
  %8 = load ptr, ptr %7, align 8
  %9 = getelementptr inbounds i8, ptr %8, i64 192
  %10 = load ptr, ptr %9, align 8
  %11 = call i32 @lxb_html_token_make_text_replace_null(ptr noundef nonnull %1, ptr noundef nonnull %3, ptr noundef %10) #4
  br label %18

12:                                               ; preds = %2
  %13 = getelementptr inbounds i8, ptr %0, i64 8
  %14 = load ptr, ptr %13, align 8
  %15 = getelementptr inbounds i8, ptr %14, i64 192
  %16 = load ptr, ptr %15, align 8
  %17 = call i32 @lxb_html_token_make_text(ptr noundef nonnull %1, ptr noundef nonnull %3, ptr noundef %16) #4
  br label %18

18:                                               ; preds = %12, %6
  %.sink = phi i32 [ %17, %12 ], [ %11, %6 ]
  %19 = getelementptr inbounds i8, ptr %0, i64 112
  store i32 %.sink, ptr %19, align 8
  %.not33 = icmp eq i32 %.sink, 0
  br i1 %.not33, label %22, label %20

20:                                               ; preds = %18
  %21 = call zeroext i1 @lxb_html_tree_process_abort(ptr noundef nonnull %0) #4
  br label %55

22:                                               ; preds = %18
  %23 = getelementptr inbounds i8, ptr %3, i64 8
  %24 = load i64, ptr %23, align 8
  %25 = icmp eq i64 %24, 0
  br i1 %25, label %26, label %32

26:                                               ; preds = %22
  %27 = getelementptr inbounds i8, ptr %0, i64 8
  %28 = load ptr, ptr %27, align 8
  %29 = getelementptr inbounds i8, ptr %28, i64 192
  %30 = load ptr, ptr %29, align 8
  %31 = call ptr @lexbor_str_destroy(ptr noundef nonnull %3, ptr noundef %30, i1 noundef zeroext false) #4
  br label %55

32:                                               ; preds = %22
  %33 = getelementptr inbounds i8, ptr %0, i64 81
  %34 = load i8, ptr %33, align 1
  %35 = and i8 %34, 1
  %.not34 = icmp eq i8 %35, 0
  br i1 %.not34, label %.loopexit, label %.lr.ph

.lr.ph:                                           ; preds = %32
  %36 = load ptr, ptr %3, align 8
  %37 = getelementptr inbounds i8, ptr %36, i64 %24
  %38 = ptrtoint ptr %37 to i64
  br label %39

39:                                               ; preds = %.lr.ph, %.backedge
  %.03040 = phi ptr [ %36, %.lr.ph ], [ %47, %.backedge ]
  %40 = load i8, ptr %.03040, align 1
  %41 = icmp eq i8 %40, -17
  br i1 %41, label %42, label %48

42:                                               ; preds = %39
  %43 = ptrtoint ptr %.03040 to i64
  %44 = sub i64 %38, %43
  %45 = icmp slt i64 %44, 3
  br i1 %45, label %.loopexit.sink.split, label %46

46:                                               ; preds = %42
  %bcmp = call i32 @bcmp(ptr noundef nonnull dereferenceable(3) %.03040, ptr noundef nonnull dereferenceable(3) @lexbor_str_res_ansi_replacement_character, i64 3)
  %.not37 = icmp eq i32 %bcmp, 0
  br i1 %.not37, label %.backedge, label %.loopexit.sink.split

.backedge:                                        ; preds = %46, %48
  %.sink41 = phi i64 [ 1, %48 ], [ 3, %46 ]
  %47 = getelementptr inbounds i8, ptr %.03040, i64 %.sink41
  %.not35 = icmp eq ptr %47, %37
  br i1 %.not35, label %.loopexit, label %39

48:                                               ; preds = %39
  %49 = zext i8 %40 to i64
  %50 = getelementptr inbounds [256 x i8], ptr @lexbor_tokenizer_chars_map, i64 0, i64 %49
  %51 = load i8, ptr %50, align 1
  %.not36 = icmp eq i8 %51, 2
  br i1 %.not36, label %.backedge, label %.loopexit.sink.split

.loopexit.sink.split:                             ; preds = %48, %46, %42
  store i8 0, ptr %33, align 1
  br label %.loopexit

.loopexit:                                        ; preds = %.backedge, %.loopexit.sink.split, %32
  %52 = call i32 @lxb_html_tree_insert_character_for_data(ptr noundef %0, ptr noundef nonnull %3, ptr noundef null) #4
  store i32 %52, ptr %19, align 8
  %.not38 = icmp eq i32 %52, 0
  br i1 %.not38, label %55, label %53

53:                                               ; preds = %.loopexit
  %54 = call zeroext i1 @lxb_html_tree_process_abort(ptr noundef nonnull %0) #4
  br label %55

55:                                               ; preds = %.loopexit, %53, %26, %20
  %.0 = phi i1 [ %21, %20 ], [ true, %26 ], [ %54, %53 ], [ true, %.loopexit ]
  ret i1 %.0
}